target datalayout = "e-m:e-p270:32:32-p271:32:32-p272:64:64-i64:64-i128:128-f80:128-n8:16:32:64-S128"
target triple = "x86_64-pc-linux-gnu"

%struct.OutputStream = type { i32, i32, ptr, i32, [32768 x i8], [1024 x i8], i64, i64, ptr, i32, i32, i32, i32, ptr, i32, i32, ptr, i32, [2 x ptr], [2 x i32], i32 }

@.str.19 = private unnamed_addr constant [4 x i8] c"FLV\00", align 1

; Function Attrs: nounwind uwtable
define internal i32 @parse_header(ptr noundef %0, ptr noundef %1, i32 noundef %2) #0 {
  %4 = alloca i32, align 4
  %5 = alloca ptr, align 8
  %6 = alloca ptr, align 8
  %7 = alloca i32, align 4
  %8 = alloca i32, align 4
  %9 = alloca i32, align 4
  %10 = alloca i32, align 4
  store ptr %0, ptr %5, align 8, !tbaa !36
  store ptr %1, ptr %6, align 8, !tbaa !108
  store i32 %2, ptr %7, align 4, !tbaa !28
  %11 = load i32, ptr %7, align 4, !tbaa !28
  %12 = icmp slt i32 %11, 13
  br i1 %12, label %13, label %14

13:                                               ; preds = %3
  store i32 -1094995529, ptr %4, align 4
  br label %154

14:                                               ; preds = %3
  %15 = load ptr, ptr %6, align 8, !tbaa !108
  %16 = call i32 @memcmp(ptr noundef %15, ptr noundef @.str.19, i64 noundef 3) #11
  %17 = icmp ne i32 %16, 0
  br i1 %17, label %18, label %19

18:                                               ; preds = %14
  store i32 -1094995529, ptr %4, align 4
  br label %154

19:                                               ; preds = %14
  %20 = load ptr, ptr %6, align 8, !tbaa !108
  %21 = getelementptr inbounds i8, ptr %20, i64 13
  store ptr %21, ptr %6, align 8, !tbaa !108
  %22 = load i32, ptr %7, align 4, !tbaa !28
  %23 = sub nsw i32 %22, 13
  store i32 %23, ptr %7, align 4, !tbaa !28
  br label %24

24:                                               ; preds = %146, %19
  %25 = load i32, ptr %7, align 4, !tbaa !28
  %26 = icmp sge i32 %25, 15
  br i1 %26, label %27, label %147

27:                                               ; preds = %24
  call void @llvm.lifetime.start.p0(i64 4, ptr %8) #9
  %28 = load ptr, ptr %6, align 8, !tbaa !108
  %29 = getelementptr inbounds i8, ptr %28, i64 0
  %30 = load i8, ptr %29, align 1, !tbaa !111
  %31 = zext i8 %30 to i32
  store i32 %31, ptr %8, align 4, !tbaa !28
  call void @llvm.lifetime.start.p0(i64 4, ptr %9) #9
  %32 = load ptr, ptr %6, align 8, !tbaa !108
  %33 = getelementptr inbounds i8, ptr %32, i64 1
  %34 = getelementptr inbounds i8, ptr %33, i64 0
  %35 = load i8, ptr %34, align 1, !tbaa !111
  %36 = zext i8 %35 to i32
  %37 = shl i32 %36, 16
  %38 = load ptr, ptr %6, align 8, !tbaa !108
  %39 = getelementptr inbounds i8, ptr %38, i64 1
  %40 = getelementptr inbounds i8, ptr %39, i64 1
  %41 = load i8, ptr %40, align 1, !tbaa !111
  %42 = zext i8 %41 to i32
  %43 = shl i32 %42, 8
  %44 = or i32 %37, %43
  %45 = load ptr, ptr %6, align 8, !tbaa !108
  %46 = getelementptr inbounds i8, ptr %45, i64 1
  %47 = getelementptr inbounds i8, ptr %46, i64 2
  %48 = load i8, ptr %47, align 1, !tbaa !111
  %49 = zext i8 %48 to i32
  %50 = or i32 %44, %49
  %51 = add nsw i32 %50, 11
  %52 = add nsw i32 %51, 4
  store i32 %52, ptr %9, align 4, !tbaa !28
  %53 = load i32, ptr %9, align 4, !tbaa !28
  %54 = load i32, ptr %7, align 4, !tbaa !28
  %55 = icmp sgt i32 %53, %54
  br i1 %55, label %56, label %57

56:                                               ; preds = %27
  store i32 -1094995529, ptr %4, align 4
  store i32 1, ptr %10, align 4
  br label %144

57:                                               ; preds = %27
  %58 = load i32, ptr %8, align 4, !tbaa !28
  %59 = icmp eq i32 %58, 8
  br i1 %59, label %63, label %60

60:                                               ; preds = %57
  %61 = load i32, ptr %8, align 4, !tbaa !28
  %62 = icmp eq i32 %61, 9
  br i1 %62, label %63, label %105

63:                                               ; preds = %60, %57
  %64 = load ptr, ptr %5, align 8, !tbaa !36
  %65 = getelementptr inbounds nuw %struct.OutputStream, ptr %64, i32 0, i32 20
  %66 = load i32, ptr %65, align 8, !tbaa !102
  %67 = sext i32 %66 to i64
  %68 = icmp uge i64 %67, 2
  br i1 %68, label %69, label %70

69:                                               ; preds = %63
  store i32 -1094995529, ptr %4, align 4
  store i32 1, ptr %10, align 4
  br label %144

70:                                               ; preds = %63
  %71 = load i32, ptr %9, align 4, !tbaa !28
  %72 = load ptr, ptr %5, align 8, !tbaa !36
  %73 = getelementptr inbounds nuw %struct.OutputStream, ptr %72, i32 0, i32 19
  %74 = load ptr, ptr %5, align 8, !tbaa !36
  %75 = getelementptr inbounds nuw %struct.OutputStream, ptr %74, i32 0, i32 20
  %76 = load i32, ptr %75, align 8, !tbaa !102
  %77 = sext i32 %76 to i64
  %78 = getelementptr inbounds [2 x i32], ptr %73, i64 0, i64 %77
  store i32 %71, ptr %78, align 4, !tbaa !28
  %79 = load ptr, ptr %6, align 8, !tbaa !108
  %80 = load i32, ptr %9, align 4, !tbaa !28
  %81 = sext i32 %80 to i64
  %82 = call ptr @av_memdup(ptr noundef %79, i64 noundef %81)
  %83 = load ptr, ptr %5, align 8, !tbaa !36
  %84 = getelementptr inbounds nuw %struct.OutputStream, ptr %83, i32 0, i32 18
  %85 = load ptr, ptr %5, align 8, !tbaa !36
  %86 = getelementptr inbounds nuw %struct.OutputStream, ptr %85, i32 0, i32 20
  %87 = load i32, ptr %86, align 8, !tbaa !102
  %88 = sext i32 %87 to i64
  %89 = getelementptr inbounds [2 x ptr], ptr %84, i64 0, i64 %88
  store ptr %82, ptr %89, align 8, !tbaa !108
  %90 = load ptr, ptr %5, align 8, !tbaa !36
  %91 = getelementptr inbounds nuw %struct.OutputStream, ptr %90, i32 0, i32 18
  %92 = load ptr, ptr %5, align 8, !tbaa !36
  %93 = getelementptr inbounds nuw %struct.OutputStream, ptr %92, i32 0, i32 20
  %94 = load i32, ptr %93, align 8, !tbaa !102
  %95 = sext i32 %94 to i64
  %96 = getelementptr inbounds [2 x ptr], ptr %91, i64 0, i64 %95
  %97 = load ptr, ptr %96, align 8, !tbaa !108
  %98 = icmp ne ptr %97, null
  br i1 %98, label %100, label %99

99:                                               ; preds = %70
  store i32 -12, ptr %4, align 4
  store i32 1, ptr %10, align 4
  br label %144

100:                                              ; preds = %70
  %101 = load ptr, ptr %5, align 8, !tbaa !36
  %102 = getelementptr inbounds nuw %struct.OutputStream, ptr %101, i32 0, i32 20
  %103 = load i32, ptr %102, align 8, !tbaa !102
  %104 = add nsw i32 %103, 1
  store i32 %104, ptr %102, align 8, !tbaa !102
  br label %136

105:                                              ; preds = %60
  %106 = load i32, ptr %8, align 4, !tbaa !28
  %107 = icmp eq i32 %106, 18
  br i1 %107, label %108, label %135

108:                                              ; preds = %105
  %109 = load ptr, ptr %5, align 8, !tbaa !36
  %110 = getelementptr inbounds nuw %struct.OutputStream, ptr %109, i32 0, i32 16
  %111 = load ptr, ptr %110, align 8, !tbaa !124
  %112 = icmp ne ptr %111, null
  br i1 %112, label %113, label %114

113:                                              ; preds = %108
  store i32 -1094995529, ptr %4, align 4
  store i32 1, ptr %10, align 4
  br label %144

114:                                              ; preds = %108
  %115 = load i32, ptr %9, align 4, !tbaa !28
  %116 = sub nsw i32 %115, 11
  %117 = sub nsw i32 %116, 4
  %118 = load ptr, ptr %5, align 8, !tbaa !36
  %119 = getelementptr inbounds nuw %struct.OutputStream, ptr %118, i32 0, i32 17
  store i32 %117, ptr %119, align 8, !tbaa !109
  %120 = load ptr, ptr %6, align 8, !tbaa !108
  %121 = getelementptr inbounds i8, ptr %120, i64 11
  %122 = load ptr, ptr %5, align 8, !tbaa !36
  %123 = getelementptr inbounds nuw %struct.OutputStream, ptr %122, i32 0, i32 17
  %124 = load i32, ptr %123, align 8, !tbaa !109
  %125 = sext i32 %124 to i64
  %126 = call ptr @av_memdup(ptr noundef %121, i64 noundef %125)
  %127 = load ptr, ptr %5, align 8, !tbaa !36
  %128 = getelementptr inbounds nuw %struct.OutputStream, ptr %127, i32 0, i32 16
  store ptr %126, ptr %128, align 8, !tbaa !124
  %129 = load ptr, ptr %5, align 8, !tbaa !36
  %130 = getelementptr inbounds nuw %struct.OutputStream, ptr %129, i32 0, i32 16
  %131 = load ptr, ptr %130, align 8, !tbaa !124
  %132 = icmp ne ptr %131, null
  br i1 %132, label %134, label %133

133:                                              ; preds = %114
  store i32 -12, ptr %4, align 4
  store i32 1, ptr %10, align 4
  br label %144

134:                                              ; preds = %114
  br label %135

135:                                              ; preds = %134, %105
  br label %136

136:                                              ; preds = %135, %100
  %137 = load i32, ptr %9, align 4, !tbaa !28
  %138 = load ptr, ptr %6, align 8, !tbaa !108
  %139 = sext i32 %137 to i64
  %140 = getelementptr inbounds i8, ptr %138, i64 %139
  store ptr %140, ptr %6, align 8, !tbaa !108
  %141 = load i32, ptr %9, align 4, !tbaa !28
  %142 = load i32, ptr %7, align 4, !tbaa !28
  %143 = sub nsw i32 %142, %141
  store i32 %143, ptr %7, align 4, !tbaa !28
  store i32 0, ptr %10, align 4
  br label %144

144:                                              ; preds = %136, %133, %113, %99, %69, %56
  call void @llvm.lifetime.end.p0(i64 4, ptr %9) #9
  call void @llvm.lifetime.end.p0(i64 4, ptr %8) #9
  %145 = load i32, ptr %10, align 4
  switch i32 %145, label %156 [
    i32 0, label %146
    i32 1, label %154
  ]

146:                                              ; preds = %144
  br label %24, !llvm.loop !126

147:                                              ; preds = %24
  %148 = load ptr, ptr %5, align 8, !tbaa !36
  %149 = getelementptr inbounds nuw %struct.OutputStream, ptr %148, i32 0, i32 16
  %150 = load ptr, ptr %149, align 8, !tbaa !124
  %151 = icmp ne ptr %150, null
  br i1 %151, label %153, label %152

152:                                              ; preds = %147
  store i32 -1094995529, ptr %4, align 4
  br label %154

153:                                              ; preds = %147
  store i32 0, ptr %4, align 4
  br label %154

154:                                              ; preds = %153, %152, %144, %18, %13
  %155 = load i32, ptr %4, align 4
  ret i32 %155

156:                                              ; preds = %144
  unreachable
}

; Function Attrs: nounwind uwtable
define internal i32 @hds_write(ptr noundef %0, ptr noundef %1, i32 noundef %2) #0 {
  %4 = alloca i32, align 4
  %5 = alloca ptr, align 8
  %6 = alloca ptr, align 8
  %7 = alloca i32, align 4
  %8 = alloca ptr, align 8
  %9 = alloca i32, align 4
  %10 = alloca i32, align 4
  store ptr %0, ptr %5, align 8, !tbaa !60
  store ptr %1, ptr %6, align 8, !tbaa !108
  store i32 %2, ptr %7, align 4, !tbaa !28
  call void @llvm.lifetime.start.p0(i64 8, ptr %8) #9
  %11 = load ptr, ptr %5, align 8, !tbaa !60
  store ptr %11, ptr %8, align 8, !tbaa !36
  %12 = load ptr, ptr %8, align 8, !tbaa !36
  %13 = getelementptr inbounds nuw %struct.OutputStream, ptr %12, i32 0, i32 8
  %14 = load ptr, ptr %13, align 8, !tbaa !101
  %15 = icmp ne ptr %14, null
  br i1 %15, label %16, label %22

16:                                               ; preds = %3
  %17 = load ptr, ptr %8, align 8, !tbaa !36
  %18 = getelementptr inbounds nuw %struct.OutputStream, ptr %17, i32 0, i32 8
  %19 = load ptr, ptr %18, align 8, !tbaa !101
  %20 = load ptr, ptr %6, align 8, !tbaa !108
  %21 = load i32, ptr %7, align 4, !tbaa !28
  call void @avio_write(ptr noundef %19, ptr noundef %20, i32 noundef %21)
  br label %40

22:                                               ; preds = %3
  %23 = load ptr, ptr %8, align 8, !tbaa !36
  %24 = getelementptr inbounds nuw %struct.OutputStream, ptr %23, i32 0, i32 17
  %25 = load i32, ptr %24, align 8, !tbaa !109
  %26 = icmp ne i32 %25, 0
  br i1 %26, label %39, label %27

27:                                               ; preds = %22
  call void @llvm.lifetime.start.p0(i64 4, ptr %9) #9
  %28 = load ptr, ptr %8, align 8, !tbaa !36
  %29 = load ptr, ptr %6, align 8, !tbaa !108
  %30 = load i32, ptr %7, align 4, !tbaa !28
  %31 = call i32 @parse_header(ptr noundef %28, ptr noundef %29, i32 noundef %30)
  store i32 %31, ptr %9, align 4, !tbaa !28
  %32 = icmp slt i32 %31, 0
  br i1 %32, label %33, label %35

33:                                               ; preds = %27
  %34 = load i32, ptr %9, align 4, !tbaa !28
  store i32 %34, ptr %4, align 4
  store i32 1, ptr %10, align 4
  br label %36

35:                                               ; preds = %27
  store i32 0, ptr %10, align 4
  br label %36

36:                                               ; preds = %35, %33
  call void @llvm.lifetime.end.p0(i64 4, ptr %9) #9
  %37 = load i32, ptr %10, align 4
  switch i32 %37, label %42 [
    i32 0, label %38
  ]

38:                                               ; preds = %36
  br label %39

39:                                               ; preds = %38, %22
  br label %40

40:                                               ; preds = %39, %16
  %41 = load i32, ptr %7, align 4, !tbaa !28
  store i32 %41, ptr %4, align 4
  store i32 1, ptr %10, align 4
  br label %42

42:                                               ; preds = %40, %36
  call void @llvm.lifetime.end.p0(i64 8, ptr %8) #9
  %43 = load i32, ptr %4, align 4
  ret i32 %43
}