; Function Attrs: nounwind uwtable
define internal i32 @hds_write(ptr noundef captures(none) %0, ptr noundef %1, i32 noundef %2) #0 {
  %4 = getelementptr inbounds nuw i8, ptr %0, i64 33832
  %5 = load ptr, ptr %4, align 8, !tbaa !65
  %.not = icmp eq ptr %5, null
  br i1 %.not, label %7, label %6

6:                                                ; preds = %3
  tail call void @avio_write(ptr noundef nonnull %5, ptr noundef %1, i32 noundef %2) #8
  br label %parse_header.exit

7:                                                ; preds = %3
  %8 = getelementptr inbounds nuw i8, ptr %0, i64 33880
  %9 = load i32, ptr %8, align 8, !tbaa !99
  %.not14 = icmp eq i32 %9, 0
  br i1 %.not14, label %10, label %parse_header.exit

10:                                               ; preds = %7
  %11 = icmp slt i32 %2, 13
  br i1 %11, label %parse_header.exit, label %12

12:                                               ; preds = %10
  %bcmp.i = tail call i32 @bcmp(ptr noundef nonnull dereferenceable(3) %1, ptr noundef nonnull dereferenceable(3) @.str.19, i64 3)
  %.not.i = icmp eq i32 %bcmp.i, 0
  br i1 %.not.i, label %13, label %parse_header.exit

13:                                               ; preds = %12
  %14 = icmp samesign ugt i32 %2, 27
  br i1 %14, label %.lr.ph.i, label %._crit_edge.i

.lr.ph.i:                                         ; preds = %13
  %15 = add nsw i32 %2, -13
  %16 = getelementptr inbounds nuw i8, ptr %1, i64 13
  %17 = getelementptr inbounds nuw i8, ptr %0, i64 33872
  %18 = getelementptr inbounds nuw i8, ptr %0, i64 33912
  %19 = getelementptr inbounds nuw i8, ptr %0, i64 33904
  %20 = getelementptr inbounds nuw i8, ptr %0, i64 33888
  br label %21

21:                                               ; preds = %61, %.lr.ph.i
  %.04058.i = phi ptr [ %16, %.lr.ph.i ], [ %63, %61 ]
  %.04257.i = phi i32 [ %15, %.lr.ph.i ], [ %64, %61 ]
  %22 = load i8, ptr %.04058.i, align 1, !tbaa !68
  %23 = getelementptr inbounds nuw i8, ptr %.04058.i, i64 1
  %24 = load i8, ptr %23, align 1, !tbaa !68
  %25 = zext i8 %24 to i32
  %26 = shl nuw nsw i32 %25, 16
  %27 = getelementptr inbounds nuw i8, ptr %.04058.i, i64 2
  %28 = load i8, ptr %27, align 1, !tbaa !68
  %29 = zext i8 %28 to i32
  %30 = shl nuw nsw i32 %29, 8
  %31 = or disjoint i32 %30, %26
  %32 = getelementptr inbounds nuw i8, ptr %.04058.i, i64 3
  %33 = load i8, ptr %32, align 1, !tbaa !68
  %34 = zext i8 %33 to i32
  %35 = or disjoint i32 %31, %34
  %36 = add nuw nsw i32 %35, 15
  %37 = icmp samesign ugt i32 %36, %.04257.i
  br i1 %37, label %parse_header.exit, label %38

38:                                               ; preds = %21
  %39 = and i8 %22, -2
  %or.cond.i = icmp eq i8 %39, 8
  br i1 %or.cond.i, label %40, label %53

40:                                               ; preds = %38
  %41 = load i32, ptr %18, align 8, !tbaa !66
  %42 = icmp ugt i32 %41, 1
  br i1 %42, label %parse_header.exit, label %43

43:                                               ; preds = %40
  %44 = zext nneg i32 %41 to i64
  %45 = getelementptr inbounds nuw [2 x i32], ptr %19, i64 0, i64 %44
  store i32 %36, ptr %45, align 4, !tbaa !25
  %46 = zext nneg i32 %36 to i64
  %47 = tail call ptr @av_memdup(ptr noundef nonnull %.04058.i, i64 noundef %46) #8
  %48 = load i32, ptr %18, align 8, !tbaa !66
  %49 = sext i32 %48 to i64
  %50 = getelementptr inbounds [2 x ptr], ptr %20, i64 0, i64 %49
  store ptr %47, ptr %50, align 8, !tbaa !67
  %.not51.i = icmp eq ptr %47, null
  br i1 %.not51.i, label %parse_header.exit, label %51

51:                                               ; preds = %43
  %52 = add nsw i32 %48, 1
  store i32 %52, ptr %18, align 8, !tbaa !66
  br label %61

53:                                               ; preds = %38
  %54 = icmp eq i8 %22, 18
  br i1 %54, label %55, label %61

55:                                               ; preds = %53
  %56 = load ptr, ptr %17, align 8, !tbaa !100
  %.not49.i = icmp eq ptr %56, null
  br i1 %.not49.i, label %57, label %parse_header.exit

57:                                               ; preds = %55
  store i32 %35, ptr %8, align 8, !tbaa !99
  %58 = getelementptr inbounds nuw i8, ptr %.04058.i, i64 11
  %59 = zext nneg i32 %35 to i64
  %60 = tail call ptr @av_memdup(ptr noundef nonnull %58, i64 noundef %59) #8
  store ptr %60, ptr %17, align 8, !tbaa !100
  %.not50.i = icmp eq ptr %60, null
  br i1 %.not50.i, label %parse_header.exit, label %61

61:                                               ; preds = %57, %53, %51
  %62 = zext nneg i32 %36 to i64
  %63 = getelementptr inbounds nuw i8, ptr %.04058.i, i64 %62
  %64 = sub nsw i32 %.04257.i, %36
  %65 = icmp sgt i32 %64, 14
  br i1 %65, label %21, label %._crit_edge.i

._crit_edge.i:                                    ; preds = %61, %13
  %66 = getelementptr inbounds nuw i8, ptr %0, i64 33872
  %67 = load ptr, ptr %66, align 8, !tbaa !100
  %.not48.i = icmp eq ptr %67, null
  %spec.select = select i1 %.not48.i, i32 -1094995529, i32 %2
  br label %parse_header.exit

parse_header.exit:                                ; preds = %57, %55, %43, %40, %21, %._crit_edge.i, %12, %10, %6, %7
  %.1 = phi i32 [ %2, %7 ], [ %2, %6 ], [ -1094995529, %12 ], [ -1094995529, %10 ], [ %spec.select, %._crit_edge.i ], [ -1094995529, %21 ], [ -1094995529, %40 ], [ -12, %43 ], [ -1094995529, %55 ], [ -12, %57 ]
  ret i32 %.1
}